target datalayout = "e-m:e-p270:32:32-p271:32:32-p272:64:64-i64:64-i128:128-f80:128-n8:16:32:64-S128"
target triple = "x86_64-pc-linux-gnu"

%struct.in_addr = type { i32 }

; Function Attrs: inlinehint nounwind uwtable
define internal i32 @evutil_v4addr_is_classd(i32 noundef %0) #5 {
  %2 = alloca i32, align 4
  store i32 %0, ptr %2, align 4
  %3 = load i32, ptr %2, align 4
  %4 = lshr i32 %3, 24
  %5 = and i32 %4, 240
  %6 = icmp eq i32 %5, 224
  %7 = zext i1 %6 to i32
  ret i32 %7
}

; Function Attrs: inlinehint nounwind uwtable
define internal i32 @evutil_v4addr_is_linklocal(i32 noundef %0) #5 {
  %2 = alloca i32, align 4
  store i32 %0, ptr %2, align 4
  %3 = load i32, ptr %2, align 4
  %4 = and i32 %3, -65536
  %5 = icmp eq i32 %4, -1442971648
  %6 = zext i1 %5 to i32
  ret i32 %6
}

; Function Attrs: inlinehint nounwind uwtable
define internal i32 @evutil_v4addr_is_localhost(i32 noundef %0) #5 {
  %2 = alloca i32, align 4
  store i32 %0, ptr %2, align 4
  %3 = load i32, ptr %2, align 4
  %4 = lshr i32 %3, 24
  %5 = icmp eq i32 %4, 127
  %6 = zext i1 %5 to i32
  ret i32 %6
}

; Function Attrs: inlinehint nounwind uwtable
define internal i32 @__bswap_32(i32 noundef %0) #5 {
  %2 = alloca i32, align 4
  store i32 %0, ptr %2, align 4
  %3 = load i32, ptr %2, align 4
  %4 = and i32 %3, -16777216
  %5 = lshr i32 %4, 24
  %6 = load i32, ptr %2, align 4
  %7 = and i32 %6, 16711680
  %8 = lshr i32 %7, 8
  %9 = or i32 %5, %8
  %10 = load i32, ptr %2, align 4
  %11 = and i32 %10, 65280
  %12 = shl i32 %11, 8
  %13 = or i32 %9, %12
  %14 = load i32, ptr %2, align 4
  %15 = and i32 %14, 255
  %16 = shl i32 %15, 24
  %17 = or i32 %13, %16
  ret i32 %17
}

; Function Attrs: nounwind uwtable
define i32 @evutil_v4addr_is_local_(ptr noundef %0) #0 {
  %2 = alloca ptr, align 8
  %3 = alloca i32, align 4
  store ptr %0, ptr %2, align 8
  call void @llvm.lifetime.start.p0(i64 4, ptr %3) #11
  %4 = load ptr, ptr %2, align 8
  %5 = getelementptr inbounds nuw %struct.in_addr, ptr %4, i32 0, i32 0
  %6 = load i32, ptr %5, align 4
  %7 = call i32 @__bswap_32(i32 noundef %6)
  store i32 %7, ptr %3, align 4
  %8 = load i32, ptr %3, align 4
  %9 = icmp eq i32 %8, 0
  br i1 %9, label %22, label %10

10:                                               ; preds = %1
  %11 = load i32, ptr %3, align 4
  %12 = call i32 @evutil_v4addr_is_localhost(i32 noundef %11)
  %13 = icmp ne i32 %12, 0
  br i1 %13, label %22, label %14

14:                                               ; preds = %10
  %15 = load i32, ptr %3, align 4
  %16 = call i32 @evutil_v4addr_is_linklocal(i32 noundef %15)
  %17 = icmp ne i32 %16, 0
  br i1 %17, label %22, label %18

18:                                               ; preds = %14
  %19 = load i32, ptr %3, align 4
  %20 = call i32 @evutil_v4addr_is_classd(i32 noundef %19)
  %21 = icmp ne i32 %20, 0
  br label %22

22:                                               ; preds = %18, %14, %10, %1
  %23 = phi i1 [ true, %14 ], [ true, %10 ], [ true, %1 ], [ %21, %18 ]
  %24 = zext i1 %23 to i32
  call void @llvm.lifetime.end.p0(i64 4, ptr %3) #11
  ret i32 %24
}