; Function Attrs: mustprogress nofree norecurse nosync nounwind willreturn memory(argmem: read) uwtable
define range(i32 0, 2) i32 @evutil_v4addr_is_local_(ptr noundef readonly captures(none) %0) local_unnamed_addr #10 {
  %2 = load i32, ptr %0, align 4
  %3 = tail call noundef i32 @llvm.bswap.i32(i32 %2)
  %4 = icmp eq i32 %2, 0
  %.mask.i = and i32 %3, -16777216
  %.not = icmp eq i32 %.mask.i, 2130706432
  %or.cond = or i1 %4, %.not
  %5 = and i32 %3, -65536
  %.not5 = icmp eq i32 %5, -1442971648
  %or.cond6 = or i1 %.not5, %or.cond
  %6 = and i32 %3, -268435456
  %7 = icmp eq i32 %6, -536870912
  %narrow = or i1 %or.cond6, %7
  %8 = zext i1 %narrow to i32
  ret i32 %8
}